target datalayout = "e-m:e-p270:32:32-p271:32:32-p272:64:64-i64:64-i128:128-f80:128-n8:16:32:64-S128"
target triple = "x86_64-pc-linux-gnu"

@.str.182 = private unnamed_addr constant [3 x i8] c"==\00", align 1
@.str.183 = private unnamed_addr constant [3 x i8] c"C-\00", align 1
@.str.184 = private unnamed_addr constant [3 x i8] c"C#\00", align 1
@.str.185 = private unnamed_addr constant [3 x i8] c"D-\00", align 1
@.str.186 = private unnamed_addr constant [3 x i8] c"D#\00", align 1
@.str.187 = private unnamed_addr constant [3 x i8] c"E-\00", align 1
@.str.188 = private unnamed_addr constant [3 x i8] c"F-\00", align 1
@.str.189 = private unnamed_addr constant [3 x i8] c"F#\00", align 1
@.str.190 = private unnamed_addr constant [3 x i8] c"G-\00", align 1
@.str.191 = private unnamed_addr constant [3 x i8] c"G#\00", align 1
@.str.192 = private unnamed_addr constant [3 x i8] c"A-\00", align 1
@.str.193 = private unnamed_addr constant [3 x i8] c"A#\00", align 1
@.str.194 = private unnamed_addr constant [3 x i8] c"B-\00", align 1
@.str.195 = private unnamed_addr constant [3 x i8] c"??\00", align 1

; Function Attrs: nounwind uwtable
define hidden ptr @xm_note_chr(i32 noundef %0) #0 {
  %2 = alloca ptr, align 8
  %3 = alloca i32, align 4
  store i32 %0, ptr %3, align 4
  %4 = load i32, ptr %3, align 4
  %5 = icmp eq i32 %4, 97
  br i1 %5, label %6, label %7

6:                                                ; preds = %1
  store ptr @.str.182, ptr %2, align 8
  br label %24

7:                                                ; preds = %1
  %8 = load i32, ptr %3, align 4
  %9 = srem i32 %8, 12
  store i32 %9, ptr %3, align 4
  %10 = load i32, ptr %3, align 4
  switch i32 %10, label %23 [
    i32 1, label %11
    i32 2, label %12
    i32 3, label %13
    i32 4, label %14
    i32 5, label %15
    i32 6, label %16
    i32 7, label %17
    i32 8, label %18
    i32 9, label %19
    i32 10, label %20
    i32 11, label %21
    i32 12, label %22
  ]

11:                                               ; preds = %7
  store ptr @.str.183, ptr %2, align 8
  br label %24

12:                                               ; preds = %7
  store ptr @.str.184, ptr %2, align 8
  br label %24

13:                                               ; preds = %7
  store ptr @.str.185, ptr %2, align 8
  br label %24

14:                                               ; preds = %7
  store ptr @.str.186, ptr %2, align 8
  br label %24

15:                                               ; preds = %7
  store ptr @.str.187, ptr %2, align 8
  br label %24

16:                                               ; preds = %7
  store ptr @.str.188, ptr %2, align 8
  br label %24

17:                                               ; preds = %7
  store ptr @.str.189, ptr %2, align 8
  br label %24

18:                                               ; preds = %7
  store ptr @.str.190, ptr %2, align 8
  br label %24

19:                                               ; preds = %7
  store ptr @.str.191, ptr %2, align 8
  br label %24

20:                                               ; preds = %7
  store ptr @.str.192, ptr %2, align 8
  br label %24

21:                                               ; preds = %7
  store ptr @.str.193, ptr %2, align 8
  br label %24

22:                                               ; preds = %7
  store ptr @.str.194, ptr %2, align 8
  br label %24

23:                                               ; preds = %7
  store ptr @.str.195, ptr %2, align 8
  br label %24

24:                                               ; preds = %23, %22, %21, %20, %19, %18, %17, %16, %15, %14, %13, %12, %11, %6
  %25 = load ptr, ptr %2, align 8
  ret ptr %25
}