; Function Attrs: mustprogress nofree norecurse nosync nounwind willreturn memory(none) uwtable
define hidden noundef nonnull ptr @xm_note_chr(i32 noundef %0) local_unnamed_addr #1 {
  %2 = icmp eq i32 %0, 97
  br i1 %2, label %7, label %3

3:                                                ; preds = %1
  %4 = srem i32 %0, 12
  %switch.tableidx = add nsw i32 %4, -1
  %5 = icmp ult i32 %switch.tableidx, 11
  br i1 %5, label %switch.lookup, label %7

switch.lookup:                                    ; preds = %3
  %6 = zext nneg i32 %switch.tableidx to i64
  %switch.gep = getelementptr inbounds nuw [11 x ptr], ptr @switch.table.xm_note_chr, i64 0, i64 %6
  %switch.load = load ptr, ptr %switch.gep, align 8
  br label %7

7:                                                ; preds = %3, %switch.lookup, %1
  %.0 = phi ptr [ @.str.182, %1 ], [ %switch.load, %switch.lookup ], [ @.str.195, %3 ]
  ret ptr %.0
}